; Function Attrs: mustprogress uwtable
define void @_ZN32pxrInternal_v0_24__pxrReserved__14SdfPathPatternC2EONS_7SdfPathE(ptr noundef nonnull align 8 dereferenceable(57) %0, ptr noundef nonnull align 4 dereferenceable(8) %1) unnamed_addr #1 align 2 personality ptr @__gxx_personality_v0 {
  tail call void @llvm.memset.p0.i64(ptr noundef nonnull align 8 dereferenceable(56) %0, i8 0, i64 56, i1 false)
  %3 = invoke noundef nonnull align 8 dereferenceable(57) ptr @_ZN32pxrInternal_v0_24__pxrReserved__14SdfPathPattern9SetPrefixEONS_7SdfPathE(ptr noundef nonnull align 8 dereferenceable(57) %0, ptr noundef nonnull align 4 dereferenceable(8) %1)
          to label %4 unwind label %5

4:                                                ; preds = %2
  ret void

5:                                                ; preds = %2
  %6 = landingpad { ptr, i32 }
          cleanup
  %7 = getelementptr inbounds nuw i8, ptr %0, i64 32
  %8 = getelementptr inbounds nuw i8, ptr %0, i64 8
  tail call void @_ZNSt6vectorIN32pxrInternal_v0_24__pxrReserved__22SdfPredicateExpressionESaIS1_EED2Ev(ptr noundef nonnull align 8 dereferenceable(24) %7) #17
  tail call void @_ZNSt6vectorIN32pxrInternal_v0_24__pxrReserved__14SdfPathPattern9ComponentESaIS2_EED2Ev(ptr noundef nonnull align 8 dereferenceable(24) %8) #17
  tail call void @_ZN32pxrInternal_v0_24__pxrReserved__7SdfPathD2Ev(ptr noundef nonnull align 4 dereferenceable(8) %0) #17
  resume { ptr, i32 } %6
}